target datalayout = "e-m:e-p270:32:32-p271:32:32-p272:64:64-i64:64-i128:128-f80:128-n8:16:32:64-S128"
target triple = "x86_64-pc-linux-gnu"

%struct._generic_SUNAdaptController_Ops = type { ptr, ptr, ptr, ptr, ptr, ptr, ptr, ptr, ptr, ptr, ptr }
%struct._generic_SUNAdaptController = type { ptr, ptr, ptr }

; Function Attrs: nounwind uwtable
define i32 @SUNAdaptController_SetErrorBias(ptr noundef %0, double noundef %1) #0 {
  %3 = alloca i32, align 4
  %4 = alloca ptr, align 8
  %5 = alloca double, align 8
  %6 = alloca i32, align 4
  %7 = alloca i32, align 4
  %8 = alloca ptr, align 8
  store ptr %0, ptr %4, align 8, !tbaa !8
  store double %1, ptr %5, align 8, !tbaa !28
  call void @llvm.lifetime.start.p0(i64 4, ptr %6) #4
  store i32 0, ptr %6, align 4, !tbaa !30
  %9 = load ptr, ptr %4, align 8, !tbaa !8
  %10 = icmp eq ptr %9, null
  br i1 %10, label %11, label %12

11:                                               ; preds = %2
  store i32 -9999, ptr %3, align 4
  store i32 1, ptr %7, align 4
  br label %33

12:                                               ; preds = %2
  call void @llvm.lifetime.start.p0(i64 8, ptr %8) #4
  %13 = load ptr, ptr %4, align 8, !tbaa !8
  %14 = getelementptr inbounds nuw %struct._generic_SUNAdaptController, ptr %13, i32 0, i32 2
  %15 = load ptr, ptr %14, align 8, !tbaa !27
  store ptr %15, ptr %8, align 8, !tbaa !3
  %16 = load ptr, ptr %4, align 8, !tbaa !8
  %17 = getelementptr inbounds nuw %struct._generic_SUNAdaptController, ptr %16, i32 0, i32 1
  %18 = load ptr, ptr %17, align 8, !tbaa !24
  %19 = getelementptr inbounds nuw %struct._generic_SUNAdaptController_Ops, ptr %18, i32 0, i32 7
  %20 = load ptr, ptr %19, align 8, !tbaa !20
  %21 = icmp ne ptr %20, null
  br i1 %21, label %22, label %31

22:                                               ; preds = %12
  %23 = load ptr, ptr %4, align 8, !tbaa !8
  %24 = getelementptr inbounds nuw %struct._generic_SUNAdaptController, ptr %23, i32 0, i32 1
  %25 = load ptr, ptr %24, align 8, !tbaa !24
  %26 = getelementptr inbounds nuw %struct._generic_SUNAdaptController_Ops, ptr %25, i32 0, i32 7
  %27 = load ptr, ptr %26, align 8, !tbaa !20
  %28 = load ptr, ptr %4, align 8, !tbaa !8
  %29 = load double, ptr %5, align 8, !tbaa !28
  %30 = call i32 %27(ptr noundef %28, double noundef %29)
  store i32 %30, ptr %6, align 4, !tbaa !30
  br label %31

31:                                               ; preds = %22, %12
  %32 = load i32, ptr %6, align 4, !tbaa !30
  store i32 %32, ptr %3, align 4
  store i32 1, ptr %7, align 4
  call void @llvm.lifetime.end.p0(i64 8, ptr %8) #4
  br label %33

33:                                               ; preds = %31, %11
  call void @llvm.lifetime.end.p0(i64 4, ptr %6) #4
  %34 = load i32, ptr %3, align 4
  ret i32 %34
}