; Function Attrs: nounwind uwtable
define i32 @SUNAdaptController_SetErrorBias(ptr noundef %0, double noundef %1) local_unnamed_addr #4 {
  %3 = icmp eq ptr %0, null
  br i1 %3, label %11, label %4

4:                                                ; preds = %2
  %5 = getelementptr inbounds nuw i8, ptr %0, i64 8
  %6 = load ptr, ptr %5, align 8, !tbaa !3
  %7 = getelementptr inbounds nuw i8, ptr %6, i64 56
  %8 = load ptr, ptr %7, align 8, !tbaa !22
  %.not = icmp eq ptr %8, null
  br i1 %.not, label %11, label %9

9:                                                ; preds = %4
  %10 = tail call i32 %8(ptr noundef nonnull %0, double noundef %1) #7
  br label %11

11:                                               ; preds = %4, %9, %2
  %.0 = phi i32 [ -9999, %2 ], [ %10, %9 ], [ 0, %4 ]
  ret i32 %.0
}